; Function Attrs: mustprogress nounwind uwtable
define internal void @_ZN12_GLOBAL__N_114RealFileSystemD2Ev(ptr noundef nonnull align 8 dereferenceable(336) %0) unnamed_addr #0 align 2 {
  store ptr getelementptr inbounds inrange(-16, 128) (i8, ptr @_ZTVN12_GLOBAL__N_114RealFileSystemE, i64 16), ptr %0, align 8
  %2 = getelementptr inbounds nuw i8, ptr %0, i64 16
  %3 = getelementptr inbounds i8, ptr %0, i64 328
  %4 = load i8, ptr %3, align 8
  %5 = trunc i8 %4 to i1
  br i1 %5, label %6, label %_ZNSt8optionalIN4llvm7ErrorOrIN12_GLOBAL__N_114RealFileSystem16WorkingDirectoryEEEED2Ev.exit

6:                                                ; preds = %1
  store i8 0, ptr %3, align 8
  %7 = getelementptr inbounds i8, ptr %0, i64 320
  %8 = load i8, ptr %7, align 8
  %9 = trunc i8 %8 to i1
  br i1 %9, label %_ZNSt8optionalIN4llvm7ErrorOrIN12_GLOBAL__N_114RealFileSystem16WorkingDirectoryEEEED2Ev.exit, label %10

10:                                               ; preds = %6
  %11 = getelementptr inbounds i8, ptr %0, i64 168
  %12 = tail call noundef i64 @_ZNK4llvm15SmallVectorBaseImE4sizeEv(ptr noundef nonnull align 8 dereferenceable(24) %11) #27
  %13 = load ptr, ptr %11, align 8
  %14 = getelementptr inbounds i8, ptr %0, i64 192
  %15 = icmp eq ptr %13, %14
  br i1 %15, label %_ZN4llvm11SmallStringILj128EED2Ev.exit.i.i.i.i.i.i.i, label %16

16:                                               ; preds = %10
  tail call void @free(ptr noundef %13) #27
  br label %_ZN4llvm11SmallStringILj128EED2Ev.exit.i.i.i.i.i.i.i

_ZN4llvm11SmallStringILj128EED2Ev.exit.i.i.i.i.i.i.i: ; preds = %16, %10
  %17 = tail call noundef i64 @_ZNK4llvm15SmallVectorBaseImE4sizeEv(ptr noundef nonnull align 8 dereferenceable(24) %2) #27
  %18 = load ptr, ptr %2, align 8
  %19 = getelementptr inbounds i8, ptr %0, i64 40
  %20 = icmp eq ptr %18, %19
  br i1 %20, label %_ZNSt8optionalIN4llvm7ErrorOrIN12_GLOBAL__N_114RealFileSystem16WorkingDirectoryEEEED2Ev.exit, label %21

21:                                               ; preds = %_ZN4llvm11SmallStringILj128EED2Ev.exit.i.i.i.i.i.i.i
  tail call void @free(ptr noundef %18) #27
  br label %_ZNSt8optionalIN4llvm7ErrorOrIN12_GLOBAL__N_114RealFileSystem16WorkingDirectoryEEEED2Ev.exit

_ZNSt8optionalIN4llvm7ErrorOrIN12_GLOBAL__N_114RealFileSystem16WorkingDirectoryEEEED2Ev.exit: ; preds = %1, %6, %_ZN4llvm11SmallStringILj128EED2Ev.exit.i.i.i.i.i.i.i, %21
  ret void
}